target datalayout = "e-m:e-p270:32:32-p271:32:32-p272:64:64-i64:64-i128:128-f80:128-n8:16:32:64-S128"
target triple = "x86_64-pc-linux-gnu"

%struct.PJconsts = type { ptr, ptr, ptr, ptr, ptr, ptr, ptr, ptr, ptr, ptr, ptr, ptr, i32, ptr, ptr, ptr, ptr, ptr, ptr, ptr, ptr, double, double, double, double, double, double, double, double, double, double, double, double, double, double, double, double, double, double, double, double, double, double, i32, i32, i32, i32, i32, i32, i32, i32, i32, i32, i32, ptr, ptr, ptr, ptr, ptr, ptr, double, double, double, double, double, double, double, double, double, double, double, i32, [7 x double], i32, ptr, ptr, double, double, i32, [4 x i8], %"class.std::shared_ptr", i8, double, i8, %"class.std::__cxx11::basic_string", %"class.std::__cxx11::basic_string", %"class.std::__cxx11::basic_string", i8, %"class.std::vector", i32, %"class.std::vector.3", i32, i8, i8, i8, ptr }
%"class.std::shared_ptr" = type { %"class.std::__shared_ptr" }
%"class.std::__shared_ptr" = type { ptr, %"class.std::__shared_count" }
%"class.std::__shared_count" = type { ptr }
%"class.std::__cxx11::basic_string" = type { %"struct.std::__cxx11::basic_string<char>::_Alloc_hider", i64, %union.anon }
%"struct.std::__cxx11::basic_string<char>::_Alloc_hider" = type { ptr }
%union.anon = type { i64, [8 x i8] }
%"class.std::vector" = type { %"struct.std::_Vector_base" }
%"struct.std::_Vector_base" = type { %"struct.std::_Vector_base<osgeo::proj::operation::GridDescription, std::allocator<osgeo::proj::operation::GridDescription>>::_Vector_impl" }
%"struct.std::_Vector_base<osgeo::proj::operation::GridDescription, std::allocator<osgeo::proj::operation::GridDescription>>::_Vector_impl" = type { %"struct.std::_Vector_base<osgeo::proj::operation::GridDescription, std::allocator<osgeo::proj::operation::GridDescription>>::_Vector_impl_data" }
%"struct.std::_Vector_base<osgeo::proj::operation::GridDescription, std::allocator<osgeo::proj::operation::GridDescription>>::_Vector_impl_data" = type { ptr, ptr, ptr }
%"class.std::vector.3" = type { %"struct.std::_Vector_base.4" }
%"struct.std::_Vector_base.4" = type { %"struct.std::_Vector_base<PJCoordOperation, std::allocator<PJCoordOperation>>::_Vector_impl" }
%"struct.std::_Vector_base<PJCoordOperation, std::allocator<PJCoordOperation>>::_Vector_impl" = type { %"struct.std::_Vector_base<PJCoordOperation, std::allocator<PJCoordOperation>>::_Vector_impl_data" }
%"struct.std::_Vector_base<PJCoordOperation, std::allocator<PJCoordOperation>>::_Vector_impl_data" = type { ptr, ptr, ptr }
%"struct.(anonymous namespace)::pj_gnom_data" = type { double, double, i32, %struct.geod_geodesic }
%struct.geod_geodesic = type { double, double, double, double, double, double, double, double, double, [6 x double], [15 x double], [21 x double] }
%struct.PJ_LP = type { double, double }
%struct.PJ_XY = type { double, double }

; Function Attrs: mustprogress uwtable
define internal { double, double } @_ZL14gnom_e_forward5PJ_LPP8PJconsts(double %0, double %1, ptr noundef %2) #0 {
  %4 = alloca %struct.PJ_XY, align 8
  %5 = alloca %struct.PJ_LP, align 8
  %6 = alloca ptr, align 8
  %7 = alloca ptr, align 8
  %8 = alloca double, align 8
  %9 = alloca double, align 8
  %10 = alloca double, align 8
  %11 = alloca double, align 8
  %12 = alloca double, align 8
  %13 = alloca double, align 8
  %14 = alloca double, align 8
  %15 = alloca double, align 8
  %16 = getelementptr inbounds nuw { double, double }, ptr %5, i32 0, i32 0
  store double %0, ptr %16, align 8
  %17 = getelementptr inbounds nuw { double, double }, ptr %5, i32 0, i32 1
  store double %1, ptr %17, align 8
  store ptr %2, ptr %6, align 8, !tbaa !3
  call void @llvm.memset.p0.i64(ptr align 8 %4, i8 0, i64 16, i1 false)
  call void @llvm.lifetime.start.p0(i64 8, ptr %7) #8
  %18 = load ptr, ptr %6, align 8, !tbaa !3
  %19 = getelementptr inbounds nuw %struct.PJconsts, ptr %18, i32 0, i32 11
  %20 = load ptr, ptr %19, align 8, !tbaa !43
  store ptr %20, ptr %7, align 8, !tbaa !41
  call void @llvm.lifetime.start.p0(i64 8, ptr %8) #8
  %21 = load ptr, ptr %6, align 8, !tbaa !3
  %22 = getelementptr inbounds nuw %struct.PJconsts, ptr %21, i32 0, i32 61
  %23 = load double, ptr %22, align 8, !tbaa !45
  %24 = fdiv double %23, 0x3F91DF46A2529D39
  store double %24, ptr %8, align 8, !tbaa !59
  call void @llvm.lifetime.start.p0(i64 8, ptr %9) #8
  store double 0.000000e+00, ptr %9, align 8, !tbaa !59
  call void @llvm.lifetime.start.p0(i64 8, ptr %10) #8
  %25 = getelementptr inbounds nuw %struct.PJ_LP, ptr %5, i32 0, i32 1
  %26 = load double, ptr %25, align 8, !tbaa !60
  %27 = fdiv double %26, 0x3F91DF46A2529D39
  store double %27, ptr %10, align 8, !tbaa !59
  call void @llvm.lifetime.start.p0(i64 8, ptr %11) #8
  %28 = getelementptr inbounds nuw %struct.PJ_LP, ptr %5, i32 0, i32 0
  %29 = load double, ptr %28, align 8, !tbaa !62
  %30 = fdiv double %29, 0x3F91DF46A2529D39
  store double %30, ptr %11, align 8, !tbaa !59
  call void @llvm.lifetime.start.p0(i64 8, ptr %12) #8
  call void @llvm.lifetime.start.p0(i64 8, ptr %13) #8
  call void @llvm.lifetime.start.p0(i64 8, ptr %14) #8
  %31 = load ptr, ptr %7, align 8, !tbaa !41
  %32 = getelementptr inbounds nuw %"struct.(anonymous namespace)::pj_gnom_data", ptr %31, i32 0, i32 3
  %33 = load double, ptr %8, align 8, !tbaa !59
  %34 = load double, ptr %9, align 8, !tbaa !59
  %35 = load double, ptr %10, align 8, !tbaa !59
  %36 = load double, ptr %11, align 8, !tbaa !59
  %37 = call double @geod_geninverse(ptr noundef %32, double noundef %33, double noundef %34, double noundef %35, double noundef %36, ptr noundef null, ptr noundef %12, ptr noundef null, ptr noundef %13, ptr noundef %14, ptr noundef null, ptr noundef null)
  %38 = load double, ptr %14, align 8, !tbaa !59
  %39 = fcmp ole double %38, 0.000000e+00
  br i1 %39, label %40, label %45

40:                                               ; preds = %3
  %41 = load ptr, ptr %6, align 8, !tbaa !3
  %42 = call i32 @proj_errno_set(ptr noundef %41, i32 noundef 2050)
  %43 = getelementptr inbounds nuw %struct.PJ_XY, ptr %4, i32 0, i32 1
  store double 0x7FF0000000000000, ptr %43, align 8, !tbaa !58
  %44 = getelementptr inbounds nuw %struct.PJ_XY, ptr %4, i32 0, i32 0
  store double 0x7FF0000000000000, ptr %44, align 8, !tbaa !56
  br label %61

45:                                               ; preds = %3
  call void @llvm.lifetime.start.p0(i64 8, ptr %15) #8
  %46 = load double, ptr %13, align 8, !tbaa !59
  %47 = load double, ptr %14, align 8, !tbaa !59
  %48 = fdiv double %46, %47
  store double %48, ptr %15, align 8, !tbaa !59
  %49 = load double, ptr %12, align 8, !tbaa !59
  %50 = fmul double %49, 0x3F91DF46A2529D39
  store double %50, ptr %12, align 8, !tbaa !59
  %51 = load double, ptr %15, align 8, !tbaa !59
  %52 = load double, ptr %12, align 8, !tbaa !59
  %53 = call double @sin(double noundef %52) #8, !tbaa !50
  %54 = fmul double %51, %53
  %55 = getelementptr inbounds nuw %struct.PJ_XY, ptr %4, i32 0, i32 0
  store double %54, ptr %55, align 8, !tbaa !56
  %56 = load double, ptr %15, align 8, !tbaa !59
  %57 = load double, ptr %12, align 8, !tbaa !59
  %58 = call double @cos(double noundef %57) #8, !tbaa !50
  %59 = fmul double %56, %58
  %60 = getelementptr inbounds nuw %struct.PJ_XY, ptr %4, i32 0, i32 1
  store double %59, ptr %60, align 8, !tbaa !58
  call void @llvm.lifetime.end.p0(i64 8, ptr %15) #8
  br label %61

61:                                               ; preds = %45, %40
  call void @llvm.lifetime.end.p0(i64 8, ptr %14) #8
  call void @llvm.lifetime.end.p0(i64 8, ptr %13) #8
  call void @llvm.lifetime.end.p0(i64 8, ptr %12) #8
  call void @llvm.lifetime.end.p0(i64 8, ptr %11) #8
  call void @llvm.lifetime.end.p0(i64 8, ptr %10) #8
  call void @llvm.lifetime.end.p0(i64 8, ptr %9) #8
  call void @llvm.lifetime.end.p0(i64 8, ptr %8) #8
  call void @llvm.lifetime.end.p0(i64 8, ptr %7) #8
  %62 = load { double, double }, ptr %4, align 8
  ret { double, double } %62
}