; Function Attrs: mustprogress uwtable
define internal { double, double } @_ZL14gnom_e_forward5PJ_LPP8PJconsts(double %0, double %1, ptr noundef %2) #0 {
  %4 = alloca double, align 8
  %5 = alloca double, align 8
  %6 = alloca double, align 8
  %7 = getelementptr inbounds nuw i8, ptr %2, i64 88
  %8 = load ptr, ptr %7, align 8, !tbaa !3
  %9 = getelementptr inbounds nuw i8, ptr %2, i64 448
  %10 = load double, ptr %9, align 8, !tbaa !37
  %11 = fdiv double %10, 0x3F91DF46A2529D39
  %12 = fdiv double %1, 0x3F91DF46A2529D39
  %13 = fdiv double %0, 0x3F91DF46A2529D39
  call void @llvm.lifetime.start.p0(i64 8, ptr nonnull %4) #9
  call void @llvm.lifetime.start.p0(i64 8, ptr nonnull %5) #9
  call void @llvm.lifetime.start.p0(i64 8, ptr nonnull %6) #9
  %14 = getelementptr inbounds nuw i8, ptr %8, i64 24
  %15 = call double @geod_geninverse(ptr noundef nonnull %14, double noundef %11, double noundef 0.000000e+00, double noundef %12, double noundef %13, ptr noundef null, ptr noundef nonnull %4, ptr noundef null, ptr noundef nonnull %5, ptr noundef nonnull %6, ptr noundef null, ptr noundef null)
  %16 = load double, ptr %6, align 8, !tbaa !54
  %17 = fcmp ugt double %16, 0.000000e+00
  br i1 %17, label %20, label %18

18:                                               ; preds = %3
  %19 = call i32 @proj_errno_set(ptr noundef nonnull %2, i32 noundef 2050)
  br label %29

20:                                               ; preds = %3
  %21 = load double, ptr %5, align 8, !tbaa !54
  %22 = fdiv double %21, %16
  %23 = load double, ptr %4, align 8, !tbaa !54
  %24 = fmul double %23, 0x3F91DF46A2529D39
  %25 = call double @sin(double noundef %24) #9, !tbaa !42
  %26 = fmul double %22, %25
  %27 = call double @cos(double noundef %24) #9, !tbaa !42
  %28 = fmul double %22, %27
  br label %29

29:                                               ; preds = %20, %18
  %.sroa.4.0 = phi double [ 0x7FF0000000000000, %18 ], [ %28, %20 ]
  %.sroa.010.0 = phi double [ 0x7FF0000000000000, %18 ], [ %26, %20 ]
  call void @llvm.lifetime.end.p0(i64 8, ptr nonnull %6) #9
  call void @llvm.lifetime.end.p0(i64 8, ptr nonnull %5) #9
  call void @llvm.lifetime.end.p0(i64 8, ptr nonnull %4) #9
  %.fca.0.insert = insertvalue { double, double } poison, double %.sroa.010.0, 0
  %.fca.1.insert = insertvalue { double, double } %.fca.0.insert, double %.sroa.4.0, 1
  ret { double, double } %.fca.1.insert
}